target datalayout = "e-m:e-p270:32:32-p271:32:32-p272:64:64-i64:64-i128:128-f80:128-n8:16:32:64-S128"
target triple = "x86_64-pc-linux-gnu"

%struct.ZSTD_compressionParameters = type { i32, i32, i32, i32, i32, i32, i32 }
%struct.ldmParams_t = type { i32, i32, i32, i32, i32, i32 }

; Function Attrs: nounwind uwtable
define void @ZSTD_ldm_adjustParameters(ptr noundef %0, ptr noundef %1) #0 {
  %3 = alloca ptr, align 8
  %4 = alloca ptr, align 8
  store ptr %0, ptr %3, align 8, !tbaa !3
  store ptr %1, ptr %4, align 8, !tbaa !3
  %5 = load ptr, ptr %4, align 8, !tbaa !3
  %6 = getelementptr inbounds nuw %struct.ZSTD_compressionParameters, ptr %5, i32 0, i32 0
  %7 = load i32, ptr %6, align 4, !tbaa !7
  %8 = load ptr, ptr %3, align 8, !tbaa !3
  %9 = getelementptr inbounds nuw %struct.ldmParams_t, ptr %8, i32 0, i32 5
  store i32 %7, ptr %9, align 4, !tbaa !10
  br label %10

10:                                               ; preds = %2
  br label %11

11:                                               ; preds = %10
  %12 = load ptr, ptr %3, align 8, !tbaa !3
  %13 = getelementptr inbounds nuw %struct.ldmParams_t, ptr %12, i32 0, i32 4
  %14 = load i32, ptr %13, align 4, !tbaa !12
  %15 = icmp eq i32 %14, 0
  br i1 %15, label %16, label %49

16:                                               ; preds = %11
  %17 = load ptr, ptr %3, align 8, !tbaa !3
  %18 = getelementptr inbounds nuw %struct.ldmParams_t, ptr %17, i32 0, i32 1
  %19 = load i32, ptr %18, align 4, !tbaa !13
  %20 = icmp ugt i32 %19, 0
  br i1 %20, label %21, label %40

21:                                               ; preds = %16
  %22 = load ptr, ptr %3, align 8, !tbaa !3
  %23 = getelementptr inbounds nuw %struct.ldmParams_t, ptr %22, i32 0, i32 5
  %24 = load i32, ptr %23, align 4, !tbaa !10
  %25 = load ptr, ptr %3, align 8, !tbaa !3
  %26 = getelementptr inbounds nuw %struct.ldmParams_t, ptr %25, i32 0, i32 1
  %27 = load i32, ptr %26, align 4, !tbaa !13
  %28 = icmp ugt i32 %24, %27
  br i1 %28, label %29, label %39

29:                                               ; preds = %21
  %30 = load ptr, ptr %3, align 8, !tbaa !3
  %31 = getelementptr inbounds nuw %struct.ldmParams_t, ptr %30, i32 0, i32 5
  %32 = load i32, ptr %31, align 4, !tbaa !10
  %33 = load ptr, ptr %3, align 8, !tbaa !3
  %34 = getelementptr inbounds nuw %struct.ldmParams_t, ptr %33, i32 0, i32 1
  %35 = load i32, ptr %34, align 4, !tbaa !13
  %36 = sub i32 %32, %35
  %37 = load ptr, ptr %3, align 8, !tbaa !3
  %38 = getelementptr inbounds nuw %struct.ldmParams_t, ptr %37, i32 0, i32 4
  store i32 %36, ptr %38, align 4, !tbaa !12
  br label %39

39:                                               ; preds = %29, %21
  br label %48

40:                                               ; preds = %16
  %41 = load ptr, ptr %4, align 8, !tbaa !3
  %42 = getelementptr inbounds nuw %struct.ZSTD_compressionParameters, ptr %41, i32 0, i32 6
  %43 = load i32, ptr %42, align 4, !tbaa !14
  %44 = udiv i32 %43, 3
  %45 = sub i32 7, %44
  %46 = load ptr, ptr %3, align 8, !tbaa !3
  %47 = getelementptr inbounds nuw %struct.ldmParams_t, ptr %46, i32 0, i32 4
  store i32 %45, ptr %47, align 4, !tbaa !12
  br label %48

48:                                               ; preds = %40, %39
  br label %49

49:                                               ; preds = %48, %11
  %50 = load ptr, ptr %3, align 8, !tbaa !3
  %51 = getelementptr inbounds nuw %struct.ldmParams_t, ptr %50, i32 0, i32 1
  %52 = load i32, ptr %51, align 4, !tbaa !13
  %53 = icmp eq i32 %52, 0
  br i1 %53, label %54, label %100

54:                                               ; preds = %49
  %55 = load ptr, ptr %3, align 8, !tbaa !3
  %56 = getelementptr inbounds nuw %struct.ldmParams_t, ptr %55, i32 0, i32 5
  %57 = load i32, ptr %56, align 4, !tbaa !10
  %58 = load ptr, ptr %3, align 8, !tbaa !3
  %59 = getelementptr inbounds nuw %struct.ldmParams_t, ptr %58, i32 0, i32 4
  %60 = load i32, ptr %59, align 4, !tbaa !12
  %61 = sub i32 %57, %60
  %62 = icmp ult i32 %61, 30
  br i1 %62, label %63, label %71

63:                                               ; preds = %54
  %64 = load ptr, ptr %3, align 8, !tbaa !3
  %65 = getelementptr inbounds nuw %struct.ldmParams_t, ptr %64, i32 0, i32 5
  %66 = load i32, ptr %65, align 4, !tbaa !10
  %67 = load ptr, ptr %3, align 8, !tbaa !3
  %68 = getelementptr inbounds nuw %struct.ldmParams_t, ptr %67, i32 0, i32 4
  %69 = load i32, ptr %68, align 4, !tbaa !12
  %70 = sub i32 %66, %69
  br label %72

71:                                               ; preds = %54
  br label %72

72:                                               ; preds = %71, %63
  %73 = phi i32 [ %70, %63 ], [ 30, %71 ]
  %74 = icmp ugt i32 6, %73
  br i1 %74, label %75, label %76

75:                                               ; preds = %72
  br label %96

76:                                               ; preds = %72
  %77 = load ptr, ptr %3, align 8, !tbaa !3
  %78 = getelementptr inbounds nuw %struct.ldmParams_t, ptr %77, i32 0, i32 5
  %79 = load i32, ptr %78, align 4, !tbaa !10
  %80 = load ptr, ptr %3, align 8, !tbaa !3
  %81 = getelementptr inbounds nuw %struct.ldmParams_t, ptr %80, i32 0, i32 4
  %82 = load i32, ptr %81, align 4, !tbaa !12
  %83 = sub i32 %79, %82
  %84 = icmp ult i32 %83, 30
  br i1 %84, label %85, label %93

85:                                               ; preds = %76
  %86 = load ptr, ptr %3, align 8, !tbaa !3
  %87 = getelementptr inbounds nuw %struct.ldmParams_t, ptr %86, i32 0, i32 5
  %88 = load i32, ptr %87, align 4, !tbaa !10
  %89 = load ptr, ptr %3, align 8, !tbaa !3
  %90 = getelementptr inbounds nuw %struct.ldmParams_t, ptr %89, i32 0, i32 4
  %91 = load i32, ptr %90, align 4, !tbaa !12
  %92 = sub i32 %88, %91
  br label %94

93:                                               ; preds = %76
  br label %94

94:                                               ; preds = %93, %85
  %95 = phi i32 [ %92, %85 ], [ 30, %93 ]
  br label %96

96:                                               ; preds = %94, %75
  %97 = phi i32 [ 6, %75 ], [ %95, %94 ]
  %98 = load ptr, ptr %3, align 8, !tbaa !3
  %99 = getelementptr inbounds nuw %struct.ldmParams_t, ptr %98, i32 0, i32 1
  store i32 %97, ptr %99, align 4, !tbaa !13
  br label %100

100:                                              ; preds = %96, %49
  %101 = load ptr, ptr %3, align 8, !tbaa !3
  %102 = getelementptr inbounds nuw %struct.ldmParams_t, ptr %101, i32 0, i32 3
  %103 = load i32, ptr %102, align 4, !tbaa !15
  %104 = icmp eq i32 %103, 0
  br i1 %104, label %105, label %118

105:                                              ; preds = %100
  %106 = load ptr, ptr %3, align 8, !tbaa !3
  %107 = getelementptr inbounds nuw %struct.ldmParams_t, ptr %106, i32 0, i32 3
  store i32 64, ptr %107, align 4, !tbaa !15
  %108 = load ptr, ptr %4, align 8, !tbaa !3
  %109 = getelementptr inbounds nuw %struct.ZSTD_compressionParameters, ptr %108, i32 0, i32 6
  %110 = load i32, ptr %109, align 4, !tbaa !14
  %111 = icmp uge i32 %110, 8
  br i1 %111, label %112, label %117

112:                                              ; preds = %105
  %113 = load ptr, ptr %3, align 8, !tbaa !3
  %114 = getelementptr inbounds nuw %struct.ldmParams_t, ptr %113, i32 0, i32 3
  %115 = load i32, ptr %114, align 4, !tbaa !15
  %116 = udiv i32 %115, 2
  store i32 %116, ptr %114, align 4, !tbaa !15
  br label %117

117:                                              ; preds = %112, %105
  br label %118

118:                                              ; preds = %117, %100
  %119 = load ptr, ptr %3, align 8, !tbaa !3
  %120 = getelementptr inbounds nuw %struct.ldmParams_t, ptr %119, i32 0, i32 2
  %121 = load i32, ptr %120, align 4, !tbaa !16
  %122 = icmp eq i32 %121, 0
  br i1 %122, label %123, label %153

123:                                              ; preds = %118
  %124 = load ptr, ptr %4, align 8, !tbaa !3
  %125 = getelementptr inbounds nuw %struct.ZSTD_compressionParameters, ptr %124, i32 0, i32 6
  %126 = load i32, ptr %125, align 4, !tbaa !14
  %127 = icmp ult i32 %126, 8
  br i1 %127, label %128, label %132

128:                                              ; preds = %123
  %129 = load ptr, ptr %4, align 8, !tbaa !3
  %130 = getelementptr inbounds nuw %struct.ZSTD_compressionParameters, ptr %129, i32 0, i32 6
  %131 = load i32, ptr %130, align 4, !tbaa !14
  br label %133

132:                                              ; preds = %123
  br label %133

133:                                              ; preds = %132, %128
  %134 = phi i32 [ %131, %128 ], [ 8, %132 ]
  %135 = icmp ugt i32 4, %134
  br i1 %135, label %136, label %137

136:                                              ; preds = %133
  br label %149

137:                                              ; preds = %133
  %138 = load ptr, ptr %4, align 8, !tbaa !3
  %139 = getelementptr inbounds nuw %struct.ZSTD_compressionParameters, ptr %138, i32 0, i32 6
  %140 = load i32, ptr %139, align 4, !tbaa !14
  %141 = icmp ult i32 %140, 8
  br i1 %141, label %142, label %146

142:                                              ; preds = %137
  %143 = load ptr, ptr %4, align 8, !tbaa !3
  %144 = getelementptr inbounds nuw %struct.ZSTD_compressionParameters, ptr %143, i32 0, i32 6
  %145 = load i32, ptr %144, align 4, !tbaa !14
  br label %147

146:                                              ; preds = %137
  br label %147

147:                                              ; preds = %146, %142
  %148 = phi i32 [ %145, %142 ], [ 8, %146 ]
  br label %149

149:                                              ; preds = %147, %136
  %150 = phi i32 [ 4, %136 ], [ %148, %147 ]
  %151 = load ptr, ptr %3, align 8, !tbaa !3
  %152 = getelementptr inbounds nuw %struct.ldmParams_t, ptr %151, i32 0, i32 2
  store i32 %150, ptr %152, align 4, !tbaa !16
  br label %153

153:                                              ; preds = %149, %118
  %154 = load ptr, ptr %3, align 8, !tbaa !3
  %155 = getelementptr inbounds nuw %struct.ldmParams_t, ptr %154, i32 0, i32 2
  %156 = load i32, ptr %155, align 4, !tbaa !16
  %157 = load ptr, ptr %3, align 8, !tbaa !3
  %158 = getelementptr inbounds nuw %struct.ldmParams_t, ptr %157, i32 0, i32 1
  %159 = load i32, ptr %158, align 4, !tbaa !13
  %160 = icmp ult i32 %156, %159
  br i1 %160, label %161, label %165

161:                                              ; preds = %153
  %162 = load ptr, ptr %3, align 8, !tbaa !3
  %163 = getelementptr inbounds nuw %struct.ldmParams_t, ptr %162, i32 0, i32 2
  %164 = load i32, ptr %163, align 4, !tbaa !16
  br label %169

165:                                              ; preds = %153
  %166 = load ptr, ptr %3, align 8, !tbaa !3
  %167 = getelementptr inbounds nuw %struct.ldmParams_t, ptr %166, i32 0, i32 1
  %168 = load i32, ptr %167, align 4, !tbaa !13
  br label %169

169:                                              ; preds = %165, %161
  %170 = phi i32 [ %164, %161 ], [ %168, %165 ]
  %171 = load ptr, ptr %3, align 8, !tbaa !3
  %172 = getelementptr inbounds nuw %struct.ldmParams_t, ptr %171, i32 0, i32 2
  store i32 %170, ptr %172, align 4, !tbaa !16
  ret void
}