; Function Attrs: mustprogress nofree norecurse nosync nounwind willreturn memory(argmem: readwrite) uwtable
define void @ZSTD_ldm_adjustParameters(ptr noundef captures(none) initializes((20, 24)) %0, ptr noundef readonly captures(none) %1) local_unnamed_addr #0 {
  %3 = load i32, ptr %1, align 4, !tbaa !3
  %4 = getelementptr inbounds nuw i8, ptr %0, i64 20
  store i32 %3, ptr %4, align 4, !tbaa !8
  %5 = getelementptr inbounds nuw i8, ptr %0, i64 16
  %6 = load i32, ptr %5, align 4, !tbaa !10
  %7 = icmp eq i32 %6, 0
  %8 = getelementptr inbounds nuw i8, ptr %0, i64 4
  %9 = load i32, ptr %8, align 4, !tbaa !11
  %.not = icmp eq i32 %9, 0
  br i1 %7, label %10, label %19

10:                                               ; preds = %2
  br i1 %.not, label %.thread48, label %11

11:                                               ; preds = %10
  %12 = icmp ugt i32 %3, %9
  br i1 %12, label %13, label %.thread

13:                                               ; preds = %11
  %14 = sub nuw i32 %3, %9
  store i32 %14, ptr %5, align 4, !tbaa !10
  br label %.thread

.thread48:                                        ; preds = %10
  %15 = getelementptr inbounds nuw i8, ptr %1, i64 24
  %16 = load i32, ptr %15, align 4, !tbaa !12
  %17 = udiv i32 %16, 3
  %18 = sub nsw i32 7, %17
  store i32 %18, ptr %5, align 4, !tbaa !10
  br label %20

19:                                               ; preds = %2
  br i1 %.not, label %20, label %.thread

20:                                               ; preds = %.thread48, %19
  %21 = phi i32 [ %18, %.thread48 ], [ %6, %19 ]
  %22 = getelementptr inbounds nuw i8, ptr %0, i64 4
  %23 = sub i32 %3, %21
  %spec.select43 = tail call i32 @llvm.umin.i32(i32 %23, i32 30)
  %spec.select46 = tail call i32 @llvm.umax.i32(i32 %spec.select43, i32 6)
  store i32 %spec.select46, ptr %22, align 4, !tbaa !11
  br label %.thread

.thread:                                          ; preds = %11, %13, %20, %19
  %24 = phi i32 [ %spec.select46, %20 ], [ %9, %19 ], [ %9, %13 ], [ %9, %11 ]
  %25 = getelementptr inbounds nuw i8, ptr %0, i64 12
  %26 = load i32, ptr %25, align 4, !tbaa !13
  %27 = icmp eq i32 %26, 0
  br i1 %27, label %28, label %32

28:                                               ; preds = %.thread
  %29 = getelementptr inbounds nuw i8, ptr %1, i64 24
  %30 = load i32, ptr %29, align 4, !tbaa !12
  %31 = icmp ugt i32 %30, 7
  %spec.store.select = select i1 %31, i32 32, i32 64
  store i32 %spec.store.select, ptr %25, align 4
  br label %32

32:                                               ; preds = %28, %.thread
  %33 = getelementptr inbounds nuw i8, ptr %0, i64 8
  %34 = load i32, ptr %33, align 4, !tbaa !14
  %35 = icmp eq i32 %34, 0
  br i1 %35, label %36, label %39

36:                                               ; preds = %32
  %37 = getelementptr inbounds nuw i8, ptr %1, i64 24
  %38 = load i32, ptr %37, align 4, !tbaa !12
  %spec.select45 = tail call i32 @llvm.umin.i32(i32 %38, i32 8)
  %spec.select47 = tail call i32 @llvm.umax.i32(i32 %spec.select45, i32 4)
  br label %39

39:                                               ; preds = %36, %32
  %40 = phi i32 [ %spec.select47, %36 ], [ %34, %32 ]
  %. = tail call i32 @llvm.umin.i32(i32 %40, i32 %24)
  store i32 %., ptr %33, align 4, !tbaa !14
  ret void
}